target datalayout = "e-m:e-p270:32:32-p271:32:32-p272:64:64-i64:64-i128:128-f80:128-n8:16:32:64-S128"
target triple = "x86_64-unknown-linux-gnu"

%"class.boost::detail::shared_count" = type { ptr }
%"class.QuantLib::FdmVPPStepCondition" = type { %"class.QuantLib::StepCondition", double, double, double, i64, i64, double, double, double, i64, i64, %"class.boost::shared_ptr.19", %"class.boost::shared_ptr.18", %"class.boost::shared_ptr.18", %"class.std::vector" }
%"class.QuantLib::StepCondition" = type { ptr }
%"class.boost::shared_ptr.19" = type { ptr, %"class.boost::detail::shared_count" }
%"class.boost::shared_ptr.18" = type { ptr, %"class.boost::detail::shared_count" }
%"class.std::vector" = type { %"struct.std::_Vector_base" }
%"struct.std::_Vector_base" = type { %"struct.std::_Vector_base<std::function<double (double)>, std::allocator<std::function<double (double)>>>::_Vector_impl" }
%"struct.std::_Vector_base<std::function<double (double)>, std::allocator<std::function<double (double)>>>::_Vector_impl" = type { %"struct.std::_Vector_base<std::function<double (double)>, std::allocator<std::function<double (double)>>>::_Vector_impl_data" }
%"struct.std::_Vector_base<std::function<double (double)>, std::allocator<std::function<double (double)>>>::_Vector_impl_data" = type { ptr, ptr, ptr }

; Function Attrs: mustprogress nounwind uwtable
define noundef double @_ZNK8QuantLib19FdmVPPStepCondition12evolveAtPMaxEd(ptr noundef nonnull align 8 dereferenceable(160) %this, double noundef %sparkSpread) #5 align 2 {
entry:
  %this.addr = alloca ptr, align 8
  %sparkSpread.addr = alloca double, align 8
  store ptr %this, ptr %this.addr, align 8, !tbaa !3
  store double %sparkSpread, ptr %sparkSpread.addr, align 8, !tbaa !56
  %this1 = load ptr, ptr %this.addr, align 8
  %pMax_ = getelementptr inbounds nuw %"class.QuantLib::FdmVPPStepCondition", ptr %this1, i32 0, i32 3
  %0 = load double, ptr %pMax_, align 8, !tbaa !27
  %1 = load double, ptr %sparkSpread.addr, align 8, !tbaa !56
  %heatRate_ = getelementptr inbounds nuw %"class.QuantLib::FdmVPPStepCondition", ptr %this1, i32 0, i32 1
  %2 = load double, ptr %heatRate_, align 8, !tbaa !14
  %fuelCostAddon_ = getelementptr inbounds nuw %"class.QuantLib::FdmVPPStepCondition", ptr %this1, i32 0, i32 8
  %3 = load double, ptr %fuelCostAddon_, align 8, !tbaa !37
  %neg = fneg double %2
  %4 = call double @llvm.fmuladd.f64(double %neg, double %3, double %1)
  %mul = fmul double %0, %4
  ret double %mul
}