; Function Attrs: mustprogress nofree norecurse nosync nounwind willreturn memory(argmem: read) uwtable
define noundef double @_ZNK8QuantLib19FdmVPPStepCondition12evolveAtPMaxEd(ptr nocapture noundef nonnull readonly align 8 dereferenceable(160) %this, double noundef %sparkSpread) local_unnamed_addr #9 align 2 {
entry:
  %pMax_ = getelementptr inbounds nuw i8, ptr %this, i64 24
  %0 = load double, ptr %pMax_, align 8, !tbaa !33
  %heatRate_ = getelementptr inbounds nuw i8, ptr %this, i64 8
  %1 = load double, ptr %heatRate_, align 8, !tbaa !21
  %fuelCostAddon_ = getelementptr inbounds nuw i8, ptr %this, i64 64
  %2 = load double, ptr %fuelCostAddon_, align 8, !tbaa !43
  %neg = fneg double %1
  %3 = tail call double @llvm.fmuladd.f64(double %neg, double %2, double %sparkSpread)
  %mul = fmul double %0, %3
  ret double %mul
}